; ModuleID = '50/1057.c'
source_filename = "50/1057.c"
target datalayout = "e-m:e-p270:32:32-p271:32:32-p272:64:64-i64:64-f80:128-n8:16:32:64-S128"
target triple = "x86_64-pc-linux-gnu"

@.str = private unnamed_addr constant [3 x i8] c"%d\00", align 1
@.str.1 = private unnamed_addr constant [4 x i8] c"%d\0A\00", align 1

; Function Attrs: noinline nounwind uwtable
define dso_local i32 @Dijitian(i32 %0, i32 %1) #0 {
  %3 = alloca i32, align 4
  %4 = alloca i32, align 4
  %5 = alloca i32, align 4
  %6 = alloca i32, align 4
  store i32 %0, i32* %3, align 4
  store i32 %1, i32* %4, align 4
  store i32 0, i32* %5, align 4
  store i32 1, i32* %6, align 4
  br label %7

7:                                                ; preds = %46, %2
  %8 = load i32, i32* %6, align 4
  %9 = load i32, i32* %3, align 4
  %10 = icmp slt i32 %8, %9
  br i1 %10, label %11, label %49

11:                                               ; preds = %7
  %12 = load i32, i32* %6, align 4
  %13 = icmp eq i32 %12, 1
  br i1 %13, label %32, label %14

14:                                               ; preds = %11
  %15 = load i32, i32* %6, align 4
  %16 = icmp eq i32 %15, 3
  br i1 %16, label %32, label %17

17:                                               ; preds = %14
  %18 = load i32, i32* %6, align 4
  %19 = icmp eq i32 %18, 5
  br i1 %19, label %32, label %20

20:                                               ; preds = %17
  %21 = load i32, i32* %6, align 4
  %22 = icmp eq i32 %21, 7
  br i1 %22, label %32, label %23

23:                                               ; preds = %20
  %24 = load i32, i32* %6, align 4
  %25 = icmp eq i32 %24, 8
  br i1 %25, label %32, label %26

26:                                               ; preds = %23
  %27 = load i32, i32* %6, align 4
  %28 = icmp eq i32 %27, 10
  br i1 %28, label %32, label %29

29:                                               ; preds = %26
  %30 = load i32, i32* %6, align 4
  %31 = icmp eq i32 %30, 12
  br i1 %31, label %32, label %35

32:                                               ; preds = %29, %26, %23, %20, %17, %14, %11
  %33 = load i32, i32* %5, align 4
  %34 = add nsw i32 %33, 31
  store i32 %34, i32* %5, align 4
  br label %45

35:                                               ; preds = %29
  %36 = load i32, i32* %6, align 4
  %37 = icmp eq i32 %36, 2
  br i1 %37, label %38, label %41

38:                                               ; preds = %35
  %39 = load i32, i32* %5, align 4
  %40 = add nsw i32 %39, 28
  store i32 %40, i32* %5, align 4
  br label %44

41:                                               ; preds = %35
  %42 = load i32, i32* %5, align 4
  %43 = add nsw i32 %42, 30
  store i32 %43, i32* %5, align 4
  br label %44

44:                                               ; preds = %41, %38
  br label %45

45:                                               ; preds = %44, %32
  br label %46

46:                                               ; preds = %45
  %47 = load i32, i32* %6, align 4
  %48 = add nsw i32 %47, 1
  store i32 %48, i32* %6, align 4
  br label %7

49:                                               ; preds = %7
  %50 = load i32, i32* %4, align 4
  %51 = load i32, i32* %5, align 4
  %52 = add nsw i32 %51, %50
  store i32 %52, i32* %5, align 4
  %53 = load i32, i32* %5, align 4
  ret i32 %53
}

; Function Attrs: noinline nounwind uwtable
define dso_local i32 @main() #0 {
  %1 = alloca i32, align 4
  %2 = alloca i32, align 4
  %3 = alloca i32, align 4
  store i32 0, i32* %1, align 4
  %4 = call i32 (i8*, ...) @__isoc99_scanf(i8* getelementptr inbounds ([3 x i8], [3 x i8]* @.str, i64 0, i64 0), i32* %2)
  store i32 1, i32* %3, align 4
  br label %5

5:                                                ; preds = %28, %0
  %6 = load i32, i32* %3, align 4
  %7 = icmp slt i32 %6, 13
  br i1 %7, label %8, label %31

8:                                                ; preds = %5
  %9 = load i32, i32* %3, align 4
  %10 = call i32 @Dijitian(i32 %9, i32 13)
  %11 = sub nsw i32 %10, 1
  %12 = srem i32 %11, 7
  %13 = load i32, i32* %2, align 4
  %14 = add nsw i32 %12, %13
  %15 = icmp eq i32 %14, 5
  br i1 %15, label %24, label %16

16:                                               ; preds = %8
  %17 = load i32, i32* %3, align 4
  %18 = call i32 @Dijitian(i32 %17, i32 13)
  %19 = sub nsw i32 %18, 1
  %20 = srem i32 %19, 7
  %21 = load i32, i32* %2, align 4
  %22 = add nsw i32 %20, %21
  %23 = icmp eq i32 %22, 12
  br i1 %23, label %24, label %27

24:                                               ; preds = %16, %8
  %25 = load i32, i32* %3, align 4
  %26 = call i32 (i8*, ...) @printf(i8* getelementptr inbounds ([4 x i8], [4 x i8]* @.str.1, i64 0, i64 0), i32 %25)
  br label %27

27:                                               ; preds = %24, %16
  br label %28

28:                                               ; preds = %27
  %29 = load i32, i32* %3, align 4
  %30 = add nsw i32 %29, 1
  store i32 %30, i32* %3, align 4
  br label %5

31:                                               ; preds = %5
  ret i32 0
}

declare dso_local i32 @__isoc99_scanf(i8*, ...) #1

declare dso_local i32 @printf(i8*, ...) #1


!llvm.module.flags = !{!0}
!llvm.ident = !{!1}

!0 = !{i32 1, !"wchar_size", i32 4}
!1 = !{!"clang version 10.0.0-4ubuntu1 "}
